; Function Attrs: mustprogress nofree norecurse nosync nounwind sspstrong willreturn memory(read, inaccessiblemem: none) uwtable
define internal fastcc i64 @original_module(i64 noundef %0) unnamed_addr #3 {
  %2 = icmp eq i64 %0, 0
  %3 = and i64 %0, 7
  %4 = icmp ne i64 %3, 0
  %5 = or i1 %2, %4
  br i1 %5, label %rbimpl_RB_TYPE_P_fastpath.exit.thread, label %rbimpl_RB_TYPE_P_fastpath.exit

rbimpl_RB_TYPE_P_fastpath.exit:                   ; preds = %1
  %6 = inttoptr i64 %0 to ptr
  %7 = load i64, ptr %6, align 8, !tbaa !28
  %8 = and i64 %7, 31
  %9 = icmp eq i64 %8, 28
  br i1 %9, label %10, label %rbimpl_RB_TYPE_P_fastpath.exit.thread

10:                                               ; preds = %rbimpl_RB_TYPE_P_fastpath.exit
  %11 = getelementptr inbounds nuw i8, ptr %6, i64 8
  %12 = load i64, ptr %11, align 8, !tbaa !36
  br label %rbimpl_RB_TYPE_P_fastpath.exit.thread

rbimpl_RB_TYPE_P_fastpath.exit.thread:            ; preds = %1, %rbimpl_RB_TYPE_P_fastpath.exit, %10
  %.0 = phi i64 [ %12, %10 ], [ %0, %rbimpl_RB_TYPE_P_fastpath.exit ], [ %0, %1 ]
  ret i64 %.0
}